; ModuleID = '30/1901.c'
source_filename = "30/1901.c"
target datalayout = "e-m:e-p270:32:32-p271:32:32-p272:64:64-i64:64-f80:128-n8:16:32:64-S128"
target triple = "x86_64-pc-linux-gnu"

@.str = private unnamed_addr constant [3 x i8] c"%d\00", align 1

; Function Attrs: noinline nounwind uwtable
define dso_local i32 @main(i32 %0, i8** %1) #0 {
  %3 = alloca i32, align 4
  %4 = alloca i32, align 4
  %5 = alloca i8**, align 8
  %6 = alloca i32, align 4
  %7 = alloca i32, align 4
  %8 = alloca i32, align 4
  store i32 0, i32* %3, align 4
  store i32 %0, i32* %4, align 4
  store i8** %1, i8*** %5, align 8
  store i32 0, i32* %8, align 4
  %9 = call i32 (i8*, ...) @__isoc99_scanf(i8* getelementptr inbounds ([3 x i8], [3 x i8]* @.str, i64 0, i64 0), i32* %6)
  store i32 1, i32* %7, align 4
  br label %10

10:                                               ; preds = %44, %2
  %11 = load i32, i32* %7, align 4
  %12 = load i32, i32* %6, align 4
  %13 = icmp sle i32 %11, %12
  br i1 %13, label %14, label %47

14:                                               ; preds = %10
  %15 = load i32, i32* %7, align 4
  %16 = srem i32 %15, 7
  %17 = icmp eq i32 %16, 0
  br i1 %17, label %18, label %21

18:                                               ; preds = %14
  %19 = load i32, i32* %8, align 4
  %20 = add nsw i32 %19, 0
  store i32 %20, i32* %8, align 4
  br label %43

21:                                               ; preds = %14
  %22 = load i32, i32* %7, align 4
  %23 = sdiv i32 %22, 10
  %24 = icmp eq i32 %23, 7
  br i1 %24, label %25, label %28

25:                                               ; preds = %21
  %26 = load i32, i32* %8, align 4
  %27 = add nsw i32 %26, 0
  store i32 %27, i32* %8, align 4
  br label %42

28:                                               ; preds = %21
  %29 = load i32, i32* %7, align 4
  %30 = srem i32 %29, 10
  %31 = icmp eq i32 %30, 7
  br i1 %31, label %32, label %35

32:                                               ; preds = %28
  %33 = load i32, i32* %8, align 4
  %34 = add nsw i32 %33, 0
  store i32 %34, i32* %8, align 4
  br label %41

35:                                               ; preds = %28
  %36 = load i32, i32* %8, align 4
  %37 = load i32, i32* %7, align 4
  %38 = load i32, i32* %7, align 4
  %39 = mul nsw i32 %37, %38
  %40 = add nsw i32 %36, %39
  store i32 %40, i32* %8, align 4
  br label %41

41:                                               ; preds = %35, %32
  br label %42

42:                                               ; preds = %41, %25
  br label %43

43:                                               ; preds = %42, %18
  br label %44

44:                                               ; preds = %43
  %45 = load i32, i32* %7, align 4
  %46 = add nsw i32 %45, 1
  store i32 %46, i32* %7, align 4
  br label %10

47:                                               ; preds = %10
  %48 = load i32, i32* %8, align 4
  %49 = call i32 (i8*, ...) @printf(i8* getelementptr inbounds ([3 x i8], [3 x i8]* @.str, i64 0, i64 0), i32 %48)
  ret i32 0
}

declare dso_local i32 @__isoc99_scanf(i8*, ...) #1

declare dso_local i32 @printf(i8*, ...) #1


!llvm.module.flags = !{!0}
!llvm.ident = !{!1}

!0 = !{i32 1, !"wchar_size", i32 4}
!1 = !{!"clang version 10.0.0-4ubuntu1 "}
